; Function Attrs: uwtable
define hidden i32 @_ZThn48_N2bv6solver11internalizeEP4exprbb(ptr noundef %0, ptr noundef %1, i1 noundef zeroext %2, i1 noundef zeroext %3) unnamed_addr #7 align 2 {
  %5 = getelementptr inbounds i8, ptr %0, i64 -48
  %6 = getelementptr inbounds nuw i8, ptr %0, i64 56
  %7 = load i32, ptr %6, align 8, !tbaa !73
  %.not1.i.i = icmp eq i32 %7, 0
  br i1 %.not1.i.i, label %_ZN3euf13th_euf_solver10force_pushEv.exit.i, label %.lr.ph.i.i

.lr.ph.i.i:                                       ; preds = %4, %.lr.ph.i.i
  %8 = load ptr, ptr %5, align 8, !tbaa !42
  %9 = getelementptr inbounds nuw i8, ptr %8, i64 512
  %10 = load ptr, ptr %9, align 8
  tail call void %10(ptr noundef nonnull align 8 dereferenceable(640) %5)
  %11 = load i32, ptr %6, align 8, !tbaa !73
  %12 = add i32 %11, -1
  store i32 %12, ptr %6, align 8, !tbaa !73
  %.not.i.i = icmp eq i32 %12, 0
  br i1 %.not.i.i, label %_ZN3euf13th_euf_solver10force_pushEv.exit.i, label %.lr.ph.i.i, !llvm.loop !74

_ZN3euf13th_euf_solver10force_pushEv.exit.i:      ; preds = %.lr.ph.i.i, %4
  %13 = getelementptr inbounds nuw i8, ptr %0, i64 24
  %14 = load ptr, ptr %13, align 8, !tbaa !89
  %15 = tail call noundef zeroext i1 @_ZN3euf15th_internalizer9visit_recER11ast_managerP4exprbb(ptr noundef nonnull align 8 dereferenceable(24) %0, ptr noundef nonnull align 8 dereferenceable(976) %14, ptr noundef %1, i1 noundef zeroext %2, i1 noundef zeroext %3)
  br i1 %15, label %16, label %_ZN2bv6solver11internalizeEP4exprbb.exit

16:                                               ; preds = %_ZN3euf13th_euf_solver10force_pushEv.exit.i
  %17 = tail call i32 @_ZNK3euf13th_euf_solver12expr2literalEP4expr(ptr noundef nonnull align 8 dereferenceable(640) %5, ptr noundef %1)
  %18 = zext i1 %2 to i32
  %spec.select.i = xor i32 %17, %18
  br label %_ZN2bv6solver11internalizeEP4exprbb.exit

_ZN2bv6solver11internalizeEP4exprbb.exit:         ; preds = %_ZN3euf13th_euf_solver10force_pushEv.exit.i, %16
  %.sroa.0.0.i = phi i32 [ -2, %_ZN3euf13th_euf_solver10force_pushEv.exit.i ], [ %spec.select.i, %16 ]
  ret i32 %.sroa.0.0.i
}